(dp1
S'hubbitus.info'
p2
(dp3
N(dp4
S'SEND_TAG'
p5
I01
sS'ALLOW_V1'
p6
I00
sS'ALLOW_V2'
p7
I01
sS'REQUIRE_ENCRYPTION'
p8
I00
sS'ERROR_START_AKE'
p9
I01
sS'WHITESPACE_START_AKE'
p10
I01
sssS'spb.ant-inform.ru'
p11
(dp12
N(dp13
g5
I01
sg6
I00
sg7
I01
sg8
I00
sg9
I01
sg10
I01
sss.