(dp1
S'entry2'
p2
S'How are you?'
p3
sS'entry3'
p4
S'Good bye.'
p5
sS'entry1'
p6
S'Hello!'
p7
sS'entry6'
p8
S''
sS'entry7'
p9
S''
sS'entry4'
p10
S''
sS'entry5'
p11
S''
sS'entry8'
p12
S''
sS'entry9'
p13
S''
sS'entry10'
p14
S''
s.